(dp0
S'gcc.varasm.assemble_end_function'
p1
(dp2
sS'gcc.emit-rtl.subreg_hard_regno'
p3
(dp4
sS'gobmk.owl_attackpat.autohelperowl_attackpat68'
p5
(dp6
sS'gobmk.combination.compute_aa_status'
p7
(dp8
sS'gcc.xexit.xexit'
p9
(dp10
sS'mesa.api.glTexCoord2d'
p11
(dp12
sS'gcc.cpplib._cpp_init_internal_pragmas'
p13
(dp14
sS'gcc.insn-emit.gen_extendsfdf2'
p15
(dp16
sS'hmmer.gsi.GSIAddKeyToIndex'
p17
(dp18
sS'gcc.emit-rtl.emit_note'
p19
(dp20
sS'hmmer.plan7.Plan7SetCtime'
p21
(dp22
sS'hmmer.tophits.AllocFancyAli'
p23
(dp24
sS'gobmk.move_reasons.get_saved_worms'
p25
(dp26
sS'gcc.alias.get_frame_alias_set'
p27
(dp28
sS'gcc.flow.find_regno_partial'
p29
(dp30
sS'mesa.api.glNormal3d'
p31
(dp32
sS'mesa.api.glFogf'
p33
(dp34
sS'gcc.insn-emit.gen_peephole2_1271'
p35
(dp36
sS'rasta.mapping.comp_Jboundaries'
p37
(dp38
sS'gcc.insn-emit.gen_peephole2_1277'
p39
(dp40
sS'sphinx3.io.stat_retry'
p41
(dp42
sS'hmmer.histogram.EVDBasicFit'
p43
(dp44
sS'gobmk.owl_defendpat.autohelperowl_defendpat281'
p45
(dp46
sS'sphinx3.profile.ptmr_init'
p47
(dp48
sS'jpeg.jcprepct.jinit_c_prep_controller'
p49
(dp50
sS'sphinx3.lm.lm_tg_score'
p51
(dp52
sS'gobmk.board.get_last_player'
p53
(dp54
sS'gcc.cselib.rtx_equal_for_cselib_p'
p55
(dp56
sS'gcc.dwarf2out.modified_type_die'
p57
(dp58
sS'mesa.api.glIndexd'
p59
(dp60
sS'pgp.mpiio.mp_display'
p61
(dp62
sS'mesa.dlist.translate_id'
p63
(dp64
sS'gcc.rtlanal.parms_set'
p65
(dp66
sS'milc.io_lat4.r_serial'
p67
(dp68
sS'sphinx3.lextree.lextree_subtree_print'
p69
(dp70
sS'gobmk.patterns.autohelperpat1114'
p71
(dp72
sS'hmmer.mathsupport.SampleDirichlet'
p73
(dp74
sS'gcc.reload1.gen_reload'
p75
(dp76
sS'gobmk.patterns.autohelperpat83'
p77
(dp78
sS'gcc.attribs.handle_noinline_attribute'
p79
(dp80
sS'gobmk.owl_defendpat.autohelperowl_defendpat382'
p81
(dp82
sS'gcc.expmed.ceil_log2'
p83
(dp84
sS'gcc.i386.ix86_expand_move'
p85
(dp86
sS'gcc.varasm.default_named_section_asm_out_destructor'
p87
(dp88
sS'sjeng.draw.is_draw'
p89
(dp90
sS'gcc.insn-emit.gen_sse_nandti3'
p91
(dp92
sS'gcc.tree.contains_placeholder_p'
p93
(dp94
sS'gcc.flow.add_to_mem_set_list'
p95
(dp96
sS'gcc.df.debug_df_chain'
p97
(dp98
sS'milc.s_m_s_mat.scalar_mult_sub_su3_matrix'
p99
(dp100
sS'gobmk.owl_defendpat.autohelperowl_defendpat421'
p101
(dp102
sS'gobmk.helpers.dragon_weak'
p103
(dp104
sS'h264ref.vlc.writeSyntaxElement_Level_VLCN'
p105
(dp106
sS'gobmk.patterns.autohelperpat508'
p107
(dp108
sS'gcc.real.eiremain'
p109
(dp110
sS'gcc.insn-emit.gen_split_1001'
p111
(dp112
sS'mesa.nurbsutl.free_unified_knots'
p113
(dp114
sS'mesa.shapes.auxWireBox'
p115
(dp116
sS'pegwit.ec_crypt.cpDecodeSecret'
p117
(dp118
sS'gobmk.owl_vital_apat.autohelperowl_vital_apat34'
p119
(dp120
sS'gobmk.combination.atari_atari_attack_callback'
p121
(dp122
sS'mpeg2.getblk.Decode_MPEG1_Non_Intra_Block'
p123
(dp124
sS'gcc.cfgbuild.control_flow_insn_p'
p125
(dp126
sS'gcc.function.use_return_register'
p127
(dp128
sS'gcc.simplify-rtx.simplify_binary_is2orm1'
p129
(dp130
sS'mesa.polytest.tess_test_polygon'
p131
(dp132
sS'mesa.eval.gl_Map1f'
p133
(dp134
sS'gcc.emit-rtl.gen_sequence'
p135
(dp136
sS'gcc.insn-emit.gen_mulsidi3'
p137
(dp138
sS'gcc.insn-emit.gen_rotlsi3'
p139
(dp140
sS'sjeng.moves.push_king'
p141
(dp142
sS'gcc.jump.unsigned_condition'
p143
(dp144
sS'gcc.cfgrtl.insert_insn_on_edge'
p145
(dp146
sS'gcc.cpplib.lex_macro_node'
p147
(dp148
sS'gcc.cse.cse_basic_block'
p149
(dp150
sS'mesa.api.glVertex2i'
p151
(dp152
sS'pgp.crypto.encryptfile'
p153
(dp154
sS'gobmk.patterns.autohelperpat335'
p155
(dp156
sS'gobmk.patterns.autohelperpat1088'
p157
(dp158
sS'gobmk.owl_attackpat.autohelperowl_attackpat291'
p159
(dp160
sS'gobmk.showbord.simple_showboard'
p161
(dp162
sS'gcc.cfgrtl.update_br_prob_note'
p163
(dp164
sS'jpeg.jccolor.null_convert'
p165
(dp166
sS'gcc.ssa.remove_phi_alternative'
p167
(dp168
sS'gobmk.optics.read_eye'
p169
(dp170
sS'sphinx3.glist.glist_tail'
p171
(dp172
sS'gcc.i386.legitimate_pic_address_disp_p'
p173
(dp174
sS'gcc.insn-emit.gen_split_1028'
p175
(dp176
sS'pgp.language.LANG'
p177
(dp178
sS'gobmk.owl_attackpat.autohelperowl_attackpat199'
p179
(dp180
sS'gcc.final.split_double'
p181
(dp182
sS'hmmer.plan7.DegenerateSymbolScore'
p183
(dp184
sS'gcc.attribs'
p185
(dp186
sS'gcc.reload1.elimination_effects'
p187
(dp188
sS'h264ref.sei.UpdateRandomAccess'
p189
(dp190
sS'gobmk.optics.topological_eye'
p191
(dp192
sS'pgp.fileio.make_canonical'
p193
(dp194
sS'pegwit.ec_vlong.vlShortLshift'
p195
(dp196
sS'hmmer.sqio.MSAToSqinfo'
p197
(dp198
sS'mesa.api.glRasterPos3d'
p199
(dp200
sS'h264ref.lencod.free_orig_planes'
p201
(dp202
sS'mesa.dlist.gl_save_LineWidth'
p203
(dp204
sS'h264ref.mv-search.GetSkipCostMB'
p205
(dp206
sS'gcc.insn-emit.gen_peephole2_1255'
p207
(dp208
sS'gcc.insn-emit.gen_sunge'
p209
(dp210
sS'mesa.varray.gl_ColorPointer'
p211
(dp212
sS'h264ref.vlc.symbol2uvlc'
p213
(dp214
sS'mesa.lines.smooth_ci_line'
p215
(dp216
sS'gcc.reload1.reload_cse_simplify_set'
p217
(dp218
sS'h264ref.fast_me.skip_intrabk_SAD'
p219
(dp220
sS'ghostscript.gximage4.sample_unpack_12'
p221
(dp222
sS'gobmk.apatterns.autohelperattpat10'
p223
(dp224
sS'gcc.insn-emit.gen_pfnacc'
p225
(dp226
sS'gobmk.barriers.autohelperbarrierspat126'
p227
(dp228
s.